target datalayout = "e-m:e-p270:32:32-p271:32:32-p272:64:64-i64:64-i128:128-f80:128-n8:16:32:64-S128"
target triple = "x86_64-pc-linux-gnu"

%"struct.boost::timer::cpu_times" = type { i64, i64, i64 }
%"class.boost::timer::cpu_timer" = type <{ %"struct.boost::timer::cpu_times", i8, [7 x i8] }>

; Function Attrs: noinline noreturn nounwind uwtable
define linkonce_odr hidden void @__clang_call_terminate(ptr noundef %0) #6 comdat {
  %2 = call ptr @__cxa_begin_catch(ptr %0) #4
  call void @_ZSt9terminatev() #16
  unreachable
}

; Function Attrs: mustprogress nounwind uwtable
define linkonce_odr hidden noundef zeroext i1 @_ZNK5boost5timer9cpu_timer10is_stoppedEv(ptr noundef nonnull align 8 dereferenceable(25) %0) #2 comdat align 2 {
  %2 = alloca ptr, align 8
  store ptr %0, ptr %2, align 8, !tbaa !3
  %3 = load ptr, ptr %2, align 8
  %4 = getelementptr inbounds nuw %"class.boost::timer::cpu_timer", ptr %3, i32 0, i32 1
  %5 = load i8, ptr %4, align 8, !tbaa !31, !range !43, !noundef !44
  %6 = trunc i8 %5 to i1
  ret i1 %6
}

; Function Attrs: mustprogress nounwind uwtable
define void @_ZNK5boost5timer9cpu_timer7elapsedEv(ptr dead_on_unwind noalias writable sret(%"struct.boost::timer::cpu_times") align 8 %0, ptr noundef nonnull align 8 dereferenceable(25) %1) #2 align 2 personality ptr @__gxx_personality_v0 {
  %3 = alloca ptr, align 8
  store ptr %1, ptr %3, align 8, !tbaa !3
  %4 = load ptr, ptr %3, align 8
  %5 = call noundef zeroext i1 @_ZNK5boost5timer9cpu_timer10is_stoppedEv(ptr noundef nonnull align 8 dereferenceable(25) %4) #4
  br i1 %5, label %6, label %8

6:                                                ; preds = %2
  %7 = getelementptr inbounds nuw %"class.boost::timer::cpu_timer", ptr %4, i32 0, i32 0
  call void @llvm.memcpy.p0.p0.i64(ptr align 8 %0, ptr align 8 %7, i64 24, i1 false), !tbaa.struct !45
  br label %28

8:                                                ; preds = %2
  invoke void @_ZN12_GLOBAL__N_113get_cpu_timesERN5boost5timer9cpu_timesE(ptr noundef nonnull align 8 dereferenceable(24) %0)
          to label %9 unwind label %29

9:                                                ; preds = %8
  %10 = getelementptr inbounds nuw %"class.boost::timer::cpu_timer", ptr %4, i32 0, i32 0
  %11 = getelementptr inbounds nuw %"struct.boost::timer::cpu_times", ptr %10, i32 0, i32 0
  %12 = load i64, ptr %11, align 8, !tbaa !40
  %13 = getelementptr inbounds nuw %"struct.boost::timer::cpu_times", ptr %0, i32 0, i32 0
  %14 = load i64, ptr %13, align 8, !tbaa !27
  %15 = sub nsw i64 %14, %12
  store i64 %15, ptr %13, align 8, !tbaa !27
  %16 = getelementptr inbounds nuw %"class.boost::timer::cpu_timer", ptr %4, i32 0, i32 0
  %17 = getelementptr inbounds nuw %"struct.boost::timer::cpu_times", ptr %16, i32 0, i32 1
  %18 = load i64, ptr %17, align 8, !tbaa !41
  %19 = getelementptr inbounds nuw %"struct.boost::timer::cpu_times", ptr %0, i32 0, i32 1
  %20 = load i64, ptr %19, align 8, !tbaa !25
  %21 = sub nsw i64 %20, %18
  store i64 %21, ptr %19, align 8, !tbaa !25
  %22 = getelementptr inbounds nuw %"class.boost::timer::cpu_timer", ptr %4, i32 0, i32 0
  %23 = getelementptr inbounds nuw %"struct.boost::timer::cpu_times", ptr %22, i32 0, i32 2
  %24 = load i64, ptr %23, align 8, !tbaa !42
  %25 = getelementptr inbounds nuw %"struct.boost::timer::cpu_times", ptr %0, i32 0, i32 2
  %26 = load i64, ptr %25, align 8, !tbaa !23
  %27 = sub nsw i64 %26, %24
  store i64 %27, ptr %25, align 8, !tbaa !23
  br label %28

28:                                               ; preds = %9, %6
  ret void

29:                                               ; preds = %8
  %30 = landingpad { ptr, i32 }
          catch ptr null
  %31 = extractvalue { ptr, i32 } %30, 0
  call void @__clang_call_terminate(ptr %31) #16
  unreachable
}