; Function Attrs: mustprogress nounwind uwtable
define void @_ZNK5boost5timer9cpu_timer7elapsedEv(ptr dead_on_unwind noalias nocapture writable sret(%"struct.boost::timer::cpu_times") align 8 %0, ptr nocapture noundef nonnull readonly align 8 dereferenceable(25) %1) local_unnamed_addr #1 align 2 personality ptr @__gxx_personality_v0 {
  %3 = getelementptr inbounds nuw i8, ptr %1, i64 24
  %4 = load i8, ptr %3, align 8, !tbaa !45, !range !55, !noundef !56
  %5 = trunc nuw i8 %4 to i1
  br i1 %5, label %6, label %7

6:                                                ; preds = %2
  tail call void @llvm.memcpy.p0.p0.i64(ptr noundef nonnull align 8 dereferenceable(24) %0, ptr noundef nonnull align 8 dereferenceable(24) %1, i64 24, i1 false), !tbaa.struct !60
  br label %21

7:                                                ; preds = %2
  tail call fastcc void @_ZN12_GLOBAL__N_113get_cpu_timesERN5boost5timer9cpu_timesE(ptr noundef nonnull align 8 dereferenceable(24) %0)
  %8 = load i64, ptr %1, align 8, !tbaa !57
  %9 = load i64, ptr %0, align 8, !tbaa !40
  %10 = sub nsw i64 %9, %8
  store i64 %10, ptr %0, align 8, !tbaa !40
  %11 = getelementptr inbounds nuw i8, ptr %1, i64 8
  %12 = load i64, ptr %11, align 8, !tbaa !58
  %13 = getelementptr inbounds nuw i8, ptr %0, i64 8
  %14 = load i64, ptr %13, align 8, !tbaa !39
  %15 = sub nsw i64 %14, %12
  store i64 %15, ptr %13, align 8, !tbaa !39
  %16 = getelementptr inbounds nuw i8, ptr %1, i64 16
  %17 = load i64, ptr %16, align 8, !tbaa !59
  %18 = getelementptr inbounds nuw i8, ptr %0, i64 16
  %19 = load i64, ptr %18, align 8, !tbaa !37
  %20 = sub nsw i64 %19, %17
  store i64 %20, ptr %18, align 8, !tbaa !37
  br label %21

21:                                               ; preds = %7, %6
  ret void
}